(dp0
S'notificaciones_cliente_proyectos_hora_creacion'
p1
(dp2
S'rname'
p3
S'"notificaciones_cliente_proyectos_hora_creacion"'
p4
sS'sortable'
p5
I8
sS'raw_rname'
p6
S'notificaciones_cliente_proyectos_hora_creacion'
p7
sS'notnull'
p8
I00
sS'length'
p9
I512
sS'sql'
p10
S'INTEGER'
p11
sS'unique'
p12
I00
sS'type'
p13
S'integer'
p14
ssS'notificaciones_cliente_proyectos_estado'
p15
(dp16
g3
S'"notificaciones_cliente_proyectos_estado"'
p17
sg5
I6
sg6
S'notificaciones_cliente_proyectos_estado'
p18
sg8
I00
sg9
I512
sg10
S'CHAR(512)'
p19
sg12
I00
sg13
S'string'
p20
ssS'notificaciones_cliente_proyectos_cliente'
p21
(dp22
g3
S'"notificaciones_cliente_proyectos_cliente"'
p23
sg5
I2
sg6
S'notificaciones_cliente_proyectos_cliente'
p24
sg8
I00
sg9
I512
sg10
S'INTEGER REFERENCES "clientes" ("id") ON DELETE CASCADE  '
p25
sg12
I00
sg13
S'reference clientes'
p26
ssS'notificaciones_cliente_proyectos_asunto'
p27
(dp28
g3
S'"notificaciones_cliente_proyectos_asunto"'
p29
sg5
I5
sg6
S'notificaciones_cliente_proyectos_asunto'
p30
sg8
I00
sg9
I512
sg10
S'CHAR(512)'
p31
sg12
I00
sg13
g20
ssS'notificaciones_cliente_proyectos_proyecto'
p32
(dp33
g3
S'"notificaciones_cliente_proyectos_proyecto"'
p34
sg5
I3
sg6
S'notificaciones_cliente_proyectos_proyecto'
p35
sg8
I00
sg9
I512
sg10
S'INTEGER REFERENCES "proyectos" ("id") ON DELETE CASCADE  '
p36
sg12
I00
sg13
S'reference proyectos'
p37
ssS'notificaciones_cliente_proyectos_fecha_creacion'
p38
(dp39
g3
S'"notificaciones_cliente_proyectos_fecha_creacion"'
p40
sg5
I7
sg6
S'notificaciones_cliente_proyectos_fecha_creacion'
p41
sg8
I00
sg9
I512
sg10
S'INTEGER'
p42
sg12
I00
sg13
g14
ssS'notificaciones_cliente_proyectos_sms'
p43
(dp44
g3
S'"notificaciones_cliente_proyectos_sms"'
p45
sg5
I4
sg6
S'notificaciones_cliente_proyectos_sms'
p46
sg8
I00
sg9
I512
sg10
S'CHAR(512)'
p47
sg12
I00
sg13
g20
ssS'id'
p48
(dp49
g3
S'"id"'
p50
sg5
I1
sg6
S'id'
p51
sg8
I00
sg9
I512
sg10
S'INTEGER PRIMARY KEY AUTOINCREMENT'
p52
sg12
I00
sg13
g51
ss.