(dp0
S'notificaciones_cliente_proyectos_hora_creacion'
p1
(dp2
S'rname'
p3
S'"notificaciones_cliente_proyectos_hora_creacion"'
p4
sS'sortable'
p5
I9
sS'raw_rname'
p6
S'notificaciones_cliente_proyectos_hora_creacion'
p7
sS'notnull'
p8
I00
sS'length'
p9
I512
sS'sql'
p10
S'INTEGER'
p11
sS'unique'
p12
I00
sS'type'
p13
S'integer'
p14
ssS'current_record'
p15
(dp16
g3
S'"current_record"'
p17
sg5
I1
sg6
S'current_record'
p18
sg8
I00
sg9
I512
sg10
S'INTEGER REFERENCES "notificaciones_cliente_proyectos" ("id") ON DELETE CASCADE  '
p19
sg12
I00
sg13
S'reference notificaciones_cliente_proyectos'
p20
ssS'notificaciones_cliente_proyectos_estado'
p21
(dp22
g3
S'"notificaciones_cliente_proyectos_estado"'
p23
sg5
I7
sg6
S'notificaciones_cliente_proyectos_estado'
p24
sg8
I00
sg9
I512
sg10
S'CHAR(512)'
p25
sg12
I00
sg13
S'string'
p26
ssS'id'
p27
(dp28
g3
S'"id"'
p29
sg5
I2
sg6
S'id'
p30
sg8
I00
sg9
I512
sg10
S'INTEGER PRIMARY KEY AUTOINCREMENT'
p31
sg12
I00
sg13
g30
ssS'notificaciones_cliente_proyectos_asunto'
p32
(dp33
g3
S'"notificaciones_cliente_proyectos_asunto"'
p34
sg5
I6
sg6
S'notificaciones_cliente_proyectos_asunto'
p35
sg8
I00
sg9
I512
sg10
S'CHAR(512)'
p36
sg12
I00
sg13
g26
ssS'notificaciones_cliente_proyectos_proyecto'
p37
(dp38
g3
S'"notificaciones_cliente_proyectos_proyecto"'
p39
sg5
I4
sg6
S'notificaciones_cliente_proyectos_proyecto'
p40
sg8
I00
sg9
I512
sg10
S'INTEGER REFERENCES "proyectos" ("id") ON DELETE CASCADE  '
p41
sg12
I00
sg13
S'reference proyectos'
p42
ssS'notificaciones_cliente_proyectos_fecha_creacion'
p43
(dp44
g3
S'"notificaciones_cliente_proyectos_fecha_creacion"'
p45
sg5
I8
sg6
S'notificaciones_cliente_proyectos_fecha_creacion'
p46
sg8
I00
sg9
I512
sg10
S'INTEGER'
p47
sg12
I00
sg13
g14
ssS'notificaciones_cliente_proyectos_sms'
p48
(dp49
g3
S'"notificaciones_cliente_proyectos_sms"'
p50
sg5
I5
sg6
S'notificaciones_cliente_proyectos_sms'
p51
sg8
I00
sg9
I512
sg10
S'CHAR(512)'
p52
sg12
I00
sg13
g26
ssS'notificaciones_cliente_proyectos_cliente'
p53
(dp54
g3
S'"notificaciones_cliente_proyectos_cliente"'
p55
sg5
I3
sg6
S'notificaciones_cliente_proyectos_cliente'
p56
sg8
I00
sg9
I512
sg10
S'INTEGER REFERENCES "clientes" ("id") ON DELETE CASCADE  '
p57
sg12
I00
sg13
S'reference clientes'
p58
ss.